target datalayout = "e-m:e-p270:32:32-p271:32:32-p272:64:64-i64:64-i128:128-f80:128-n8:16:32:64-S128"
target triple = "x86_64-pc-linux-gnu"

%struct.bufq = type { ptr, ptr, ptr, ptr, i64, i64, i64, i32 }
%struct.Curl_creader = type { ptr, ptr, ptr, i32 }
%struct.cr_mime_ctx = type { %struct.Curl_creader, ptr, i64, i64, i32, %struct.bufq, i8 }

; Function Attrs: nounwind uwtable
define internal i32 @cr_mime_init(ptr noundef %0, ptr noundef %1) #0 {
  %3 = alloca ptr, align 8
  %4 = alloca ptr, align 8
  %5 = alloca ptr, align 8
  store ptr %0, ptr %3, align 8, !tbaa !43
  store ptr %1, ptr %4, align 8, !tbaa !93
  call void @llvm.lifetime.start.p0(i64 8, ptr %5) #8
  %6 = load ptr, ptr %4, align 8, !tbaa !93
  %7 = getelementptr inbounds nuw %struct.Curl_creader, ptr %6, i32 0, i32 2
  %8 = load ptr, ptr %7, align 8, !tbaa !95
  store ptr %8, ptr %5, align 8, !tbaa !98
  %9 = load ptr, ptr %5, align 8, !tbaa !98
  %10 = getelementptr inbounds nuw %struct.cr_mime_ctx, ptr %9, i32 0, i32 2
  store i64 -1, ptr %10, align 8, !tbaa !105
  %11 = load ptr, ptr %5, align 8, !tbaa !98
  %12 = getelementptr inbounds nuw %struct.cr_mime_ctx, ptr %11, i32 0, i32 3
  store i64 0, ptr %12, align 8, !tbaa !122
  %13 = load ptr, ptr %5, align 8, !tbaa !98
  %14 = getelementptr inbounds nuw %struct.cr_mime_ctx, ptr %13, i32 0, i32 5
  call void @Curl_bufq_init2(ptr noundef %14, i64 noundef 1024, i64 noundef 1, i32 noundef 2)
  call void @llvm.lifetime.end.p0(i64 8, ptr %5) #8
  ret i32 0
}