; Function Attrs: nounwind uwtable
define internal noundef i32 @cr_mime_init(ptr readnone captures(none) %0, ptr noundef readonly captures(none) %1) #0 {
  %3 = getelementptr inbounds nuw i8, ptr %1, i64 16
  %4 = load ptr, ptr %3, align 8, !tbaa !86
  %5 = getelementptr inbounds nuw i8, ptr %4, i64 40
  store i64 -1, ptr %5, align 8, !tbaa !94
  %6 = getelementptr inbounds nuw i8, ptr %4, i64 48
  store i64 0, ptr %6, align 8, !tbaa !106
  %7 = getelementptr inbounds nuw i8, ptr %4, i64 64
  tail call void @Curl_bufq_init2(ptr noundef nonnull %7, i64 noundef 1024, i64 noundef 1, i32 noundef 2) #18
  ret i32 0
}